target datalayout = "e-m:e-p270:32:32-p271:32:32-p272:64:64-i64:64-i128:128-f80:128-n8:16:32:64-S128"
target triple = "x86_64-pc-linux-gnu"

%struct.rb_data_type_struct = type { ptr, %struct.anon, ptr, ptr, i64 }
%struct.anon = type { ptr, ptr, ptr, ptr, [1 x ptr] }
%struct.RTypedData = type { %struct.RBasic, ptr, i64, ptr }
%struct.RBasic = type { i64, i64 }

@eSSLSession = internal global i64 0, align 8
@.str.14 = private unnamed_addr constant [32 x i8] c"SSL Session already initialized\00", align 1
@cSSLSocket = external global i64, align 8
@ossl_ssl_type = external constant %struct.rb_data_type_struct, align 8
@rb_eRuntimeError = external global i64, align 8
@.str.15 = private unnamed_addr constant [23 x i8] c"SSL is not initialized\00", align 1
@.str.16 = private unnamed_addr constant [21 x i8] c"no session available\00", align 1
@rb_eArgError = external global i64, align 8
@.str.17 = private unnamed_addr constant [13 x i8] c"unknown type\00", align 1

; Function Attrs: nounwind sspstrong uwtable
define internal i64 @ossl_ssl_session_initialize(i64 noundef %0, i64 noundef %1) #0 {
  %3 = alloca i64, align 8
  %4 = alloca i64, align 8
  %5 = alloca ptr, align 8
  %6 = alloca ptr, align 8
  %7 = alloca ptr, align 8
  store i64 %0, ptr %3, align 8, !tbaa !10
  store i64 %1, ptr %4, align 8, !tbaa !10
  call void @llvm.lifetime.start.p0(i64 8, ptr %5) #15
  %8 = load i64, ptr %3, align 8, !tbaa !10
  %9 = inttoptr i64 %8 to ptr
  %10 = getelementptr inbounds nuw %struct.RTypedData, ptr %9, i32 0, i32 3
  %11 = load ptr, ptr %10, align 8, !tbaa !12
  %12 = icmp ne ptr %11, null
  br i1 %12, label %13, label %15

13:                                               ; preds = %2
  %14 = load i64, ptr @eSSLSession, align 8, !tbaa !10
  call void (i64, ptr, ...) @ossl_raise(i64 noundef %14, ptr noundef @.str.14) #16
  unreachable

15:                                               ; preds = %2
  %16 = load i64, ptr %4, align 8, !tbaa !10
  %17 = load i64, ptr @cSSLSocket, align 8, !tbaa !10
  %18 = call i64 @rb_obj_is_instance_of(i64 noundef %16, i64 noundef %17)
  %19 = icmp ne i64 %18, 0
  br i1 %19, label %20, label %37

20:                                               ; preds = %15
  call void @llvm.lifetime.start.p0(i64 8, ptr %6) #15
  br label %21

21:                                               ; preds = %20
  %22 = load i64, ptr %4, align 8, !tbaa !10
  %23 = call ptr @rb_check_typeddata(i64 noundef %22, ptr noundef @ossl_ssl_type)
  store ptr %23, ptr %6, align 8, !tbaa !16
  %24 = load ptr, ptr %6, align 8, !tbaa !16
  %25 = icmp ne ptr %24, null
  br i1 %25, label %28, label %26

26:                                               ; preds = %21
  %27 = load i64, ptr @rb_eRuntimeError, align 8, !tbaa !10
  call void (i64, ptr, ...) @ossl_raise(i64 noundef %27, ptr noundef @.str.15) #16
  unreachable

28:                                               ; preds = %21
  br label %29

29:                                               ; preds = %28
  br label %30

30:                                               ; preds = %29
  %31 = load ptr, ptr %6, align 8, !tbaa !16
  %32 = call ptr @SSL_get1_session(ptr noundef %31)
  store ptr %32, ptr %5, align 8, !tbaa !18
  %33 = icmp eq ptr %32, null
  br i1 %33, label %34, label %36

34:                                               ; preds = %30
  %35 = load i64, ptr @eSSLSession, align 8, !tbaa !10
  call void (i64, ptr, ...) @ossl_raise(i64 noundef %35, ptr noundef @.str.16) #16
  unreachable

36:                                               ; preds = %30
  call void @llvm.lifetime.end.p0(i64 8, ptr %6) #15
  br label %59

37:                                               ; preds = %15
  call void @llvm.lifetime.start.p0(i64 8, ptr %7) #15
  %38 = call ptr @ossl_obj2bio(ptr noundef %4)
  store ptr %38, ptr %7, align 8, !tbaa !20
  %39 = load ptr, ptr %7, align 8, !tbaa !20
  %40 = call ptr @ASN1_d2i_bio(ptr noundef @SSL_SESSION_new, ptr noundef @d2i_SSL_SESSION, ptr noundef %39, ptr noundef null)
  store ptr %40, ptr %5, align 8, !tbaa !18
  %41 = load ptr, ptr %5, align 8, !tbaa !18
  %42 = icmp ne ptr %41, null
  br i1 %42, label %51, label %43

43:                                               ; preds = %37
  br label %44

44:                                               ; preds = %43
  %45 = load ptr, ptr %7, align 8, !tbaa !20
  %46 = call i64 @BIO_ctrl(ptr noundef %45, i32 noundef 1, i64 noundef 0, ptr noundef null)
  call void @ossl_clear_error()
  br label %47

47:                                               ; preds = %44
  br label %48

48:                                               ; preds = %47
  %49 = load ptr, ptr %7, align 8, !tbaa !20
  %50 = call ptr @PEM_read_bio_SSL_SESSION(ptr noundef %49, ptr noundef null, ptr noundef null, ptr noundef null)
  store ptr %50, ptr %5, align 8, !tbaa !18
  br label %51

51:                                               ; preds = %48, %37
  %52 = load ptr, ptr %7, align 8, !tbaa !20
  %53 = call i32 @BIO_free(ptr noundef %52)
  %54 = load ptr, ptr %5, align 8, !tbaa !18
  %55 = icmp ne ptr %54, null
  br i1 %55, label %58, label %56

56:                                               ; preds = %51
  %57 = load i64, ptr @rb_eArgError, align 8, !tbaa !10
  call void (i64, ptr, ...) @ossl_raise(i64 noundef %57, ptr noundef @.str.17) #16
  unreachable

58:                                               ; preds = %51
  call void @llvm.lifetime.end.p0(i64 8, ptr %7) #15
  br label %59

59:                                               ; preds = %58, %36
  %60 = load ptr, ptr %5, align 8, !tbaa !18
  %61 = load i64, ptr %3, align 8, !tbaa !10
  %62 = inttoptr i64 %61 to ptr
  %63 = getelementptr inbounds nuw %struct.RTypedData, ptr %62, i32 0, i32 3
  store ptr %60, ptr %63, align 8, !tbaa !12
  %64 = load i64, ptr %3, align 8, !tbaa !10
  call void @llvm.lifetime.end.p0(i64 8, ptr %5) #15
  ret i64 %64
}