; Function Attrs: nounwind sspstrong uwtable
define internal noundef i64 @ossl_ssl_session_initialize(i64 noundef returned %0, i64 noundef %1) #0 {
  %3 = alloca i64, align 8
  store i64 %1, ptr %3, align 8, !tbaa !6
  %4 = inttoptr i64 %0 to ptr
  %5 = getelementptr inbounds nuw i8, ptr %4, i64 32
  %6 = load ptr, ptr %5, align 8, !tbaa !10
  %.not = icmp eq ptr %6, null
  br i1 %.not, label %9, label %7

7:                                                ; preds = %2
  %8 = load i64, ptr @eSSLSession, align 8, !tbaa !6
  tail call void (i64, ptr, ...) @ossl_raise(i64 noundef %8, ptr noundef nonnull @.str.14) #5
  unreachable

9:                                                ; preds = %2
  %10 = load i64, ptr @cSSLSocket, align 8, !tbaa !6
  %11 = tail call i64 @rb_obj_is_instance_of(i64 noundef %1, i64 noundef %10) #4
  %.not14 = icmp eq i64 %11, 0
  br i1 %.not14, label %21, label %12

12:                                               ; preds = %9
  %13 = tail call ptr @rb_check_typeddata(i64 noundef %1, ptr noundef nonnull @ossl_ssl_type) #4
  %.not17 = icmp eq ptr %13, null
  br i1 %.not17, label %14, label %16

14:                                               ; preds = %12
  %15 = load i64, ptr @rb_eRuntimeError, align 8, !tbaa !6
  tail call void (i64, ptr, ...) @ossl_raise(i64 noundef %15, ptr noundef nonnull @.str.15) #5
  unreachable

16:                                               ; preds = %12
  %17 = tail call ptr @SSL_get1_session(ptr noundef nonnull %13) #4
  %18 = icmp eq ptr %17, null
  br i1 %18, label %19, label %31

19:                                               ; preds = %16
  %20 = load i64, ptr @eSSLSession, align 8, !tbaa !6
  tail call void (i64, ptr, ...) @ossl_raise(i64 noundef %20, ptr noundef nonnull @.str.16) #5
  unreachable

21:                                               ; preds = %9
  %22 = call ptr @ossl_obj2bio(ptr noundef nonnull %3) #4
  %23 = call ptr @ASN1_d2i_bio(ptr noundef nonnull @SSL_SESSION_new, ptr noundef nonnull @d2i_SSL_SESSION, ptr noundef %22, ptr noundef null) #4
  %.not15 = icmp eq ptr %23, null
  br i1 %.not15, label %25, label %.thread

.thread:                                          ; preds = %21
  %24 = call i32 @BIO_free(ptr noundef %22) #4
  br label %31

25:                                               ; preds = %21
  %26 = call i64 @BIO_ctrl(ptr noundef %22, i32 noundef 1, i64 noundef 0, ptr noundef null) #4
  call void @ossl_clear_error() #4
  %27 = call ptr @PEM_read_bio_SSL_SESSION(ptr noundef %22, ptr noundef null, ptr noundef null, ptr noundef null) #4
  %28 = call i32 @BIO_free(ptr noundef %22) #4
  %.not16 = icmp eq ptr %27, null
  br i1 %.not16, label %29, label %31

29:                                               ; preds = %25
  %30 = load i64, ptr @rb_eArgError, align 8, !tbaa !6
  call void (i64, ptr, ...) @ossl_raise(i64 noundef %30, ptr noundef nonnull @.str.17) #5
  unreachable

31:                                               ; preds = %.thread, %25, %16
  %.0 = phi ptr [ %17, %16 ], [ %27, %25 ], [ %23, %.thread ]
  store ptr %.0, ptr %5, align 8, !tbaa !10
  ret i64 %0
}